target datalayout = "e-m:e-p270:32:32-p271:32:32-p272:64:64-i64:64-i128:128-f80:128-n8:16:32:64-S128"
target triple = "x86_64-pc-linux-gnu"

%struct.slurmdb_assoc_rec = type { ptr, ptr, ptr, ptr, ptr, ptr, ptr, i32, i32, i32, i32, i32, ptr, ptr, ptr, ptr, ptr, ptr, i32, i32, i16, ptr, ptr, i32, i32, i32, ptr, ptr, ptr, ptr, ptr, ptr, ptr, ptr, i32, i32, ptr, i32, ptr, i32, ptr, i32, i32, ptr, ptr, ptr }

@.str.173 = private unnamed_addr constant [48 x i8] c"Removed association id:%u user:%s, held %u jobs\00", align 1
@.str.174 = private unnamed_addr constant [34 x i8] c"Removed association id:%u user:%s\00", align 1

; Function Attrs: nounwind uwtable
define internal void @_remove_assoc(ptr noundef %0) #0 {
  %2 = alloca ptr, align 8
  %3 = alloca i32, align 4
  store ptr %0, ptr %2, align 8
  call void @llvm.lifetime.start.p0(i64 4, ptr %3) #11
  store i32 0, ptr %3, align 4
  %4 = call i32 @bb_g_reconfig()
  %5 = load ptr, ptr %2, align 8
  %6 = getelementptr inbounds nuw %struct.slurmdb_assoc_rec, ptr %5, i32 0, i32 19
  %7 = load i32, ptr %6, align 4
  %8 = call i32 @job_hold_by_assoc_id(i32 noundef %7)
  store i32 %8, ptr %3, align 4
  %9 = load i32, ptr %3, align 4
  %10 = icmp ne i32 %9, 0
  br i1 %10, label %11, label %29

11:                                               ; preds = %1
  br label %12

12:                                               ; preds = %11
  br label %13

13:                                               ; preds = %12
  %14 = call i32 @get_log_level()
  %15 = icmp sge i32 %14, 3
  br i1 %15, label %16, label %24

16:                                               ; preds = %13
  %17 = load ptr, ptr %2, align 8
  %18 = getelementptr inbounds nuw %struct.slurmdb_assoc_rec, ptr %17, i32 0, i32 19
  %19 = load i32, ptr %18, align 4
  %20 = load ptr, ptr %2, align 8
  %21 = getelementptr inbounds nuw %struct.slurmdb_assoc_rec, ptr %20, i32 0, i32 44
  %22 = load ptr, ptr %21, align 8
  %23 = load i32, ptr %3, align 4
  call void (i32, ptr, ...) @log_var(i32 noundef 3, ptr noundef @.str.173, i32 noundef %19, ptr noundef %22, i32 noundef %23)
  br label %24

24:                                               ; preds = %16, %13
  br label %25

25:                                               ; preds = %24
  br label %26

26:                                               ; preds = %25
  br label %27

27:                                               ; preds = %26
  br label %28

28:                                               ; preds = %27
  br label %46

29:                                               ; preds = %1
  br label %30

30:                                               ; preds = %29
  br label %31

31:                                               ; preds = %30
  %32 = call i32 @get_log_level()
  %33 = icmp sge i32 %32, 5
  br i1 %33, label %34, label %41

34:                                               ; preds = %31
  %35 = load ptr, ptr %2, align 8
  %36 = getelementptr inbounds nuw %struct.slurmdb_assoc_rec, ptr %35, i32 0, i32 19
  %37 = load i32, ptr %36, align 4
  %38 = load ptr, ptr %2, align 8
  %39 = getelementptr inbounds nuw %struct.slurmdb_assoc_rec, ptr %38, i32 0, i32 44
  %40 = load ptr, ptr %39, align 8
  call void (i32, ptr, ...) @log_var(i32 noundef 5, ptr noundef @.str.174, i32 noundef %37, ptr noundef %40)
  br label %41

41:                                               ; preds = %34, %31
  br label %42

42:                                               ; preds = %41
  br label %43

43:                                               ; preds = %42
  br label %44

44:                                               ; preds = %43
  br label %45

45:                                               ; preds = %44
  br label %46

46:                                               ; preds = %45, %28
  call void @llvm.lifetime.end.p0(i64 4, ptr %3) #11
  ret void
}