; Function Attrs: nounwind uwtable
define internal void @_remove_assoc(ptr noundef readonly captures(none) %0) #6 {
  %2 = tail call i32 @bb_g_reconfig() #19
  %3 = getelementptr inbounds nuw i8, ptr %0, i64 132
  %4 = load i32, ptr %3, align 4
  %5 = tail call i32 @job_hold_by_assoc_id(i32 noundef %4) #19
  %.not = icmp eq i32 %5, 0
  %6 = tail call i32 @get_log_level() #19
  br i1 %.not, label %13, label %7

7:                                                ; preds = %1
  %8 = icmp sgt i32 %6, 2
  br i1 %8, label %9, label %19

9:                                                ; preds = %7
  %10 = load i32, ptr %3, align 4
  %11 = getelementptr inbounds nuw i8, ptr %0, i64 304
  %12 = load ptr, ptr %11, align 8
  tail call void (i32, ptr, ...) @log_var(i32 noundef 3, ptr noundef nonnull @.str.173, i32 noundef %10, ptr noundef %12, i32 noundef %5) #19
  br label %19

13:                                               ; preds = %1
  %14 = icmp sgt i32 %6, 4
  br i1 %14, label %15, label %19

15:                                               ; preds = %13
  %16 = load i32, ptr %3, align 4
  %17 = getelementptr inbounds nuw i8, ptr %0, i64 304
  %18 = load ptr, ptr %17, align 8
  tail call void (i32, ptr, ...) @log_var(i32 noundef 5, ptr noundef nonnull @.str.174, i32 noundef %16, ptr noundef %18) #19
  br label %19

19:                                               ; preds = %13, %15, %7, %9
  ret void
}